target datalayout = "e-m:e-p270:32:32-p271:32:32-p272:64:64-i64:64-i128:128-f80:128-n8:16:32:64-S128"
target triple = "x86_64-pc-linux-gnu"

%struct.gmx_ana_index_t = type { i32, ptr, i32 }

; Function Attrs: mustprogress nounwind uwtable
define noundef zeroext i1 @_Z20gmx_ana_index_equalsP15gmx_ana_index_tS0_(ptr noundef %0, ptr noundef %1) #1 {
  %3 = alloca i1, align 1
  %4 = alloca ptr, align 8
  %5 = alloca ptr, align 8
  %6 = alloca i32, align 4
  %7 = alloca i32, align 4
  store ptr %0, ptr %4, align 8, !tbaa !232
  store ptr %1, ptr %5, align 8, !tbaa !232
  call void @llvm.lifetime.start.p0(i64 4, ptr %6) #19
  %8 = load ptr, ptr %4, align 8, !tbaa !232
  %9 = getelementptr inbounds nuw %struct.gmx_ana_index_t, ptr %8, i32 0, i32 0
  %10 = load i32, ptr %9, align 8, !tbaa !234
  %11 = load ptr, ptr %5, align 8, !tbaa !232
  %12 = getelementptr inbounds nuw %struct.gmx_ana_index_t, ptr %11, i32 0, i32 0
  %13 = load i32, ptr %12, align 8, !tbaa !234
  %14 = icmp ne i32 %10, %13
  br i1 %14, label %15, label %16

15:                                               ; preds = %2
  store i1 false, ptr %3, align 1
  store i32 1, ptr %7, align 4
  br label %45

16:                                               ; preds = %2
  store i32 0, ptr %6, align 4, !tbaa !114
  br label %17

17:                                               ; preds = %41, %16
  %18 = load i32, ptr %6, align 4, !tbaa !114
  %19 = load ptr, ptr %4, align 8, !tbaa !232
  %20 = getelementptr inbounds nuw %struct.gmx_ana_index_t, ptr %19, i32 0, i32 0
  %21 = load i32, ptr %20, align 8, !tbaa !234
  %22 = icmp slt i32 %18, %21
  br i1 %22, label %23, label %44

23:                                               ; preds = %17
  %24 = load ptr, ptr %4, align 8, !tbaa !232
  %25 = getelementptr inbounds nuw %struct.gmx_ana_index_t, ptr %24, i32 0, i32 1
  %26 = load ptr, ptr %25, align 8, !tbaa !236
  %27 = load i32, ptr %6, align 4, !tbaa !114
  %28 = sext i32 %27 to i64
  %29 = getelementptr inbounds i32, ptr %26, i64 %28
  %30 = load i32, ptr %29, align 4, !tbaa !114
  %31 = load ptr, ptr %5, align 8, !tbaa !232
  %32 = getelementptr inbounds nuw %struct.gmx_ana_index_t, ptr %31, i32 0, i32 1
  %33 = load ptr, ptr %32, align 8, !tbaa !236
  %34 = load i32, ptr %6, align 4, !tbaa !114
  %35 = sext i32 %34 to i64
  %36 = getelementptr inbounds i32, ptr %33, i64 %35
  %37 = load i32, ptr %36, align 4, !tbaa !114
  %38 = icmp ne i32 %30, %37
  br i1 %38, label %39, label %40

39:                                               ; preds = %23
  store i1 false, ptr %3, align 1
  store i32 1, ptr %7, align 4
  br label %45

40:                                               ; preds = %23
  br label %41

41:                                               ; preds = %40
  %42 = load i32, ptr %6, align 4, !tbaa !114
  %43 = add nsw i32 %42, 1
  store i32 %43, ptr %6, align 4, !tbaa !114
  br label %17, !llvm.loop !331

44:                                               ; preds = %17
  store i1 true, ptr %3, align 1
  store i32 1, ptr %7, align 4
  br label %45

45:                                               ; preds = %44, %39, %15
  call void @llvm.lifetime.end.p0(i64 4, ptr %6) #19
  %46 = load i1, ptr %3, align 1
  ret i1 %46
}