; Function Attrs: mustprogress nofree norecurse nosync nounwind willreturn memory(read, inaccessiblemem: none) uwtable
define noundef zeroext i1 @_Z20gmx_ana_index_equalsP15gmx_ana_index_tS0_(ptr noundef readonly captures(none) %0, ptr noundef readonly captures(none) %1) local_unnamed_addr #18 {
  %3 = load i32, ptr %0, align 8, !tbaa !73
  %4 = load i32, ptr %1, align 8, !tbaa !73
  %.not = icmp eq i32 %3, %4
  br i1 %.not, label %.preheader, label %.loopexit

.preheader:                                       ; preds = %2
  %5 = icmp sgt i32 %3, 0
  br i1 %5, label %.lr.ph, label %.loopexit

.lr.ph:                                           ; preds = %.preheader
  %6 = getelementptr inbounds nuw i8, ptr %0, i64 8
  %7 = load ptr, ptr %6, align 8, !tbaa !108
  %8 = getelementptr inbounds nuw i8, ptr %1, i64 8
  %9 = load ptr, ptr %8, align 8, !tbaa !108
  %wide.trip.count = zext nneg i32 %3 to i64
  br label %10

10:                                               ; preds = %10, %.lr.ph
  %indvars.iv = phi i64 [ 0, %.lr.ph ], [ %indvars.iv.next, %10 ]
  %11 = getelementptr inbounds nuw i32, ptr %7, i64 %indvars.iv
  %12 = load i32, ptr %11, align 4, !tbaa !36
  %13 = getelementptr inbounds nuw i32, ptr %9, i64 %indvars.iv
  %14 = load i32, ptr %13, align 4, !tbaa !36
  %.not10 = icmp eq i32 %12, %14
  %indvars.iv.next = add nuw nsw i64 %indvars.iv, 1
  %exitcond.not = icmp ne i64 %indvars.iv.next, %wide.trip.count
  %or.cond.not = select i1 %.not10, i1 %exitcond.not, i1 false
  br i1 %or.cond.not, label %10, label %.loopexit, !llvm.loop !128

.loopexit:                                        ; preds = %10, %.preheader, %2
  %.09 = phi i1 [ false, %2 ], [ true, %.preheader ], [ %.not10, %10 ]
  ret i1 %.09
}